target datalayout = "e-m:e-p270:32:32-p271:32:32-p272:64:64-i64:64-i128:128-f80:128-n8:16:32:64-S128"
target triple = "x86_64-unknown-linux-gnu"

%"struct.std::pair" = type <{ ptr, i32, [4 x i8] }>

; Function Attrs: mustprogress uwtable
define void @_ZN8facebook5velox8encoding6Base649decodeUrlERKSt4pairIPKciERNSt7__cxx1112basic_stringIcSt11char_traitsIcESaIcEEE(ptr noundef nonnull align 8 dereferenceable(12) %payload, ptr noundef nonnull align 8 dereferenceable(32) %output) #1 align 2 {
entry:
  %payload.addr = alloca ptr, align 8
  %output.addr = alloca ptr, align 8
  %out_len = alloca i64, align 8
  store ptr %payload, ptr %payload.addr, align 8
  store ptr %output, ptr %output.addr, align 8
  %0 = load ptr, ptr %payload.addr, align 8
  %second = getelementptr inbounds %"struct.std::pair", ptr %0, i32 0, i32 1
  %1 = load i32, ptr %second, align 8
  %add = add nsw i32 %1, 3
  %div = sdiv i32 %add, 4
  %mul = mul nsw i32 %div, 3
  %conv = sext i32 %mul to i64
  store i64 %conv, ptr %out_len, align 8
  %2 = load ptr, ptr %output.addr, align 8
  %3 = load i64, ptr %out_len, align 8
  call void @_ZNSt7__cxx1112basic_stringIcSt11char_traitsIcESaIcEE6resizeEmc(ptr noundef nonnull align 8 dereferenceable(32) %2, i64 noundef %3, i8 noundef signext 0)
  %4 = load ptr, ptr %payload.addr, align 8
  %first = getelementptr inbounds %"struct.std::pair", ptr %4, i32 0, i32 0
  %5 = load ptr, ptr %first, align 8
  %6 = load ptr, ptr %payload.addr, align 8
  %second1 = getelementptr inbounds %"struct.std::pair", ptr %6, i32 0, i32 1
  %7 = load i32, ptr %second1, align 8
  %conv2 = sext i32 %7 to i64
  %8 = load ptr, ptr %output.addr, align 8
  %call = call noundef nonnull align 1 dereferenceable(1) ptr @_ZNSt7__cxx1112basic_stringIcSt11char_traitsIcESaIcEEixEm(ptr noundef nonnull align 8 dereferenceable(32) %8, i64 noundef 0)
  %9 = load i64, ptr %out_len, align 8
  %call3 = call noundef i64 @_ZN8facebook5velox8encoding6Base6410decodeImplEPKcmPcmRKSt5arrayIhLm256EEb(ptr noundef %5, i64 noundef %conv2, ptr noundef %call, i64 noundef %9, ptr noundef nonnull align 1 dereferenceable(256) @_ZN8facebook5velox8encodingL27kBase64UrlReverseIndexTableE, i1 noundef zeroext false)
  store i64 %call3, ptr %out_len, align 8
  %10 = load ptr, ptr %output.addr, align 8
  %11 = load i64, ptr %out_len, align 8
  call void @_ZNSt7__cxx1112basic_stringIcSt11char_traitsIcESaIcEE6resizeEm(ptr noundef nonnull align 8 dereferenceable(32) %10, i64 noundef %11)
  ret void
}