; Function Attrs: mustprogress uwtable
define void @_ZN8facebook5velox8encoding6Base649decodeUrlERKSt4pairIPKciERNSt7__cxx1112basic_stringIcSt11char_traitsIcESaIcEEE(ptr nocapture noundef nonnull readonly align 8 dereferenceable(12) %payload, ptr noundef nonnull align 8 dereferenceable(32) %output) local_unnamed_addr #2 align 2 {
entry:
  %second = getelementptr inbounds i8, ptr %payload, i64 8
  %0 = load i32, ptr %second, align 8
  %add = add nsw i32 %0, 3
  %div = sdiv i32 %add, 4
  %mul = mul nsw i32 %div, 3
  %conv = sext i32 %mul to i64
  tail call void @_ZNSt7__cxx1112basic_stringIcSt11char_traitsIcESaIcEE6resizeEmc(ptr noundef nonnull align 8 dereferenceable(32) %output, i64 noundef %conv, i8 noundef signext 0)
  %1 = load ptr, ptr %payload, align 8
  %2 = load i32, ptr %second, align 8
  %conv2 = sext i32 %2 to i64
  %call = tail call noundef nonnull align 1 dereferenceable(1) ptr @_ZNSt7__cxx1112basic_stringIcSt11char_traitsIcESaIcEEixEm(ptr noundef nonnull align 8 dereferenceable(32) %output, i64 noundef 0)
  %call3 = tail call noundef i64 @_ZN8facebook5velox8encoding6Base6410decodeImplEPKcmPcmRKSt5arrayIhLm256EEb(ptr noundef %1, i64 noundef %conv2, ptr noundef nonnull %call, i64 noundef %conv, ptr noundef nonnull align 1 dereferenceable(256) @_ZN8facebook5velox8encodingL27kBase64UrlReverseIndexTableE, i1 noundef zeroext false)
  tail call void @_ZNSt7__cxx1112basic_stringIcSt11char_traitsIcESaIcEE6resizeEm(ptr noundef nonnull align 8 dereferenceable(32) %output, i64 noundef %call3)
  ret void
}